target datalayout = "e-m:e-p270:32:32-p271:32:32-p272:64:64-i64:64-i128:128-f80:128-n8:16:32:64-S128"
target triple = "x86_64-pc-linux-gnu"

; Function Attrs: mustprogress nounwind uwtable
define void @UCNV_FROM_U_CALLBACK_STOP_77(ptr noundef %0, ptr noundef %1, ptr noundef %2, i32 noundef %3, i32 noundef %4, i32 noundef %5, ptr noundef %6) #0 {
  %8 = alloca ptr, align 8
  %9 = alloca ptr, align 8
  %10 = alloca ptr, align 8
  %11 = alloca i32, align 4
  %12 = alloca i32, align 4
  %13 = alloca i32, align 4
  %14 = alloca ptr, align 8
  store ptr %0, ptr %8, align 8, !tbaa !3
  store ptr %1, ptr %9, align 8, !tbaa !3
  store ptr %2, ptr %10, align 8, !tbaa !7
  store i32 %3, ptr %11, align 4, !tbaa !9
  store i32 %4, ptr %12, align 4, !tbaa !9
  store i32 %5, ptr %13, align 4, !tbaa !11
  store ptr %6, ptr %14, align 8, !tbaa !3
  %15 = load i32, ptr %13, align 4, !tbaa !11
  %16 = icmp eq i32 %15, 0
  br i1 %16, label %17, label %103

17:                                               ; preds = %7
  %18 = load i32, ptr %12, align 4, !tbaa !9
  %19 = icmp eq i32 %18, 173
  br i1 %19, label %101, label %20

20:                                               ; preds = %17
  %21 = load i32, ptr %12, align 4, !tbaa !9
  %22 = icmp eq i32 %21, 847
  br i1 %22, label %101, label %23

23:                                               ; preds = %20
  %24 = load i32, ptr %12, align 4, !tbaa !9
  %25 = icmp eq i32 %24, 1564
  br i1 %25, label %101, label %26

26:                                               ; preds = %23
  %27 = load i32, ptr %12, align 4, !tbaa !9
  %28 = icmp eq i32 %27, 4447
  br i1 %28, label %101, label %29

29:                                               ; preds = %26
  %30 = load i32, ptr %12, align 4, !tbaa !9
  %31 = icmp eq i32 %30, 4448
  br i1 %31, label %101, label %32

32:                                               ; preds = %29
  %33 = load i32, ptr %12, align 4, !tbaa !9
  %34 = icmp sle i32 6068, %33
  br i1 %34, label %35, label %38

35:                                               ; preds = %32
  %36 = load i32, ptr %12, align 4, !tbaa !9
  %37 = icmp sle i32 %36, 6069
  br i1 %37, label %101, label %38

38:                                               ; preds = %35, %32
  %39 = load i32, ptr %12, align 4, !tbaa !9
  %40 = icmp sle i32 6155, %39
  br i1 %40, label %41, label %44

41:                                               ; preds = %38
  %42 = load i32, ptr %12, align 4, !tbaa !9
  %43 = icmp sle i32 %42, 6159
  br i1 %43, label %101, label %44

44:                                               ; preds = %41, %38
  %45 = load i32, ptr %12, align 4, !tbaa !9
  %46 = icmp sle i32 8203, %45
  br i1 %46, label %47, label %50

47:                                               ; preds = %44
  %48 = load i32, ptr %12, align 4, !tbaa !9
  %49 = icmp sle i32 %48, 8207
  br i1 %49, label %101, label %50

50:                                               ; preds = %47, %44
  %51 = load i32, ptr %12, align 4, !tbaa !9
  %52 = icmp sle i32 8234, %51
  br i1 %52, label %53, label %56

53:                                               ; preds = %50
  %54 = load i32, ptr %12, align 4, !tbaa !9
  %55 = icmp sle i32 %54, 8238
  br i1 %55, label %101, label %56

56:                                               ; preds = %53, %50
  %57 = load i32, ptr %12, align 4, !tbaa !9
  %58 = icmp sle i32 8288, %57
  br i1 %58, label %59, label %62

59:                                               ; preds = %56
  %60 = load i32, ptr %12, align 4, !tbaa !9
  %61 = icmp sle i32 %60, 8303
  br i1 %61, label %101, label %62

62:                                               ; preds = %59, %56
  %63 = load i32, ptr %12, align 4, !tbaa !9
  %64 = icmp eq i32 %63, 12644
  br i1 %64, label %101, label %65

65:                                               ; preds = %62
  %66 = load i32, ptr %12, align 4, !tbaa !9
  %67 = icmp sle i32 65024, %66
  br i1 %67, label %68, label %71

68:                                               ; preds = %65
  %69 = load i32, ptr %12, align 4, !tbaa !9
  %70 = icmp sle i32 %69, 65039
  br i1 %70, label %101, label %71

71:                                               ; preds = %68, %65
  %72 = load i32, ptr %12, align 4, !tbaa !9
  %73 = icmp eq i32 %72, 65279
  br i1 %73, label %101, label %74

74:                                               ; preds = %71
  %75 = load i32, ptr %12, align 4, !tbaa !9
  %76 = icmp eq i32 %75, 65440
  br i1 %76, label %101, label %77

77:                                               ; preds = %74
  %78 = load i32, ptr %12, align 4, !tbaa !9
  %79 = icmp sle i32 65520, %78
  br i1 %79, label %80, label %83

80:                                               ; preds = %77
  %81 = load i32, ptr %12, align 4, !tbaa !9
  %82 = icmp sle i32 %81, 65528
  br i1 %82, label %101, label %83

83:                                               ; preds = %80, %77
  %84 = load i32, ptr %12, align 4, !tbaa !9
  %85 = icmp sle i32 113824, %84
  br i1 %85, label %86, label %89

86:                                               ; preds = %83
  %87 = load i32, ptr %12, align 4, !tbaa !9
  %88 = icmp sle i32 %87, 113827
  br i1 %88, label %101, label %89

89:                                               ; preds = %86, %83
  %90 = load i32, ptr %12, align 4, !tbaa !9
  %91 = icmp sle i32 119155, %90
  br i1 %91, label %92, label %95

92:                                               ; preds = %89
  %93 = load i32, ptr %12, align 4, !tbaa !9
  %94 = icmp sle i32 %93, 119162
  br i1 %94, label %101, label %95

95:                                               ; preds = %92, %89
  %96 = load i32, ptr %12, align 4, !tbaa !9
  %97 = icmp sle i32 917504, %96
  br i1 %97, label %98, label %103

98:                                               ; preds = %95
  %99 = load i32, ptr %12, align 4, !tbaa !9
  %100 = icmp sle i32 %99, 921599
  br i1 %100, label %101, label %103

101:                                              ; preds = %98, %92, %86, %80, %74, %71, %68, %62, %59, %53, %47, %41, %35, %29, %26, %23, %20, %17
  %102 = load ptr, ptr %14, align 8, !tbaa !3
  store i32 0, ptr %102, align 4, !tbaa !13
  br label %103

103:                                              ; preds = %101, %98, %95, %7
  ret void
}