; Function Attrs: mustprogress nofree norecurse nosync nounwind willreturn memory(argmem: write) uwtable
define void @UCNV_FROM_U_CALLBACK_STOP_77(ptr noundef readnone captures(none) %0, ptr noundef readnone captures(none) %1, ptr noundef readnone captures(none) %2, i32 noundef %3, i32 noundef %4, i32 noundef %5, ptr noundef writeonly captures(none) %6) local_unnamed_addr #0 {
  %8 = icmp eq i32 %5, 0
  br i1 %8, label %9, label %21

9:                                                ; preds = %7
  switch i32 %4, label %10 [
    i32 4448, label %20
    i32 4447, label %20
    i32 1564, label %20
    i32 847, label %20
    i32 173, label %20
    i32 8238, label %20
    i32 8237, label %20
    i32 8236, label %20
    i32 8235, label %20
    i32 8234, label %20
    i32 8207, label %20
    i32 8206, label %20
    i32 8205, label %20
    i32 8204, label %20
    i32 8203, label %20
    i32 6159, label %20
    i32 6158, label %20
    i32 6157, label %20
    i32 6156, label %20
    i32 6155, label %20
    i32 6069, label %20
    i32 6068, label %20
  ]

10:                                               ; preds = %9
  %11 = and i32 %4, -16
  %or.cond17 = icmp eq i32 %11, 8288
  %12 = icmp eq i32 %4, 12644
  %or.cond19 = or i1 %12, %or.cond17
  br i1 %or.cond19, label %20, label %13

13:                                               ; preds = %10
  %or.cond21 = icmp eq i32 %11, 65024
  %14 = icmp eq i32 %4, 65279
  %or.cond23 = or i1 %14, %or.cond21
  %15 = icmp eq i32 %4, 65440
  %or.cond25 = or i1 %15, %or.cond23
  %16 = add i32 %4, -65520
  %or.cond27 = icmp ult i32 %16, 9
  %or.cond64 = or i1 %or.cond27, %or.cond25
  %17 = and i32 %4, -4
  %or.cond29 = icmp eq i32 %17, 113824
  %or.cond65 = or i1 %or.cond29, %or.cond64
  %18 = add i32 %4, -119155
  %or.cond31 = icmp ult i32 %18, 8
  %or.cond66 = or i1 %or.cond31, %or.cond65
  %19 = and i32 %4, -4096
  %or.cond33 = icmp eq i32 %19, 917504
  %or.cond67 = or i1 %or.cond33, %or.cond66
  br i1 %or.cond67, label %20, label %21

20:                                               ; preds = %9, %9, %9, %9, %9, %9, %9, %9, %9, %9, %9, %9, %9, %9, %9, %9, %9, %9, %9, %9, %9, %9, %13, %10
  store i32 0, ptr %6, align 4, !tbaa !3
  br label %21

21:                                               ; preds = %13, %20, %7
  ret void
}